target datalayout = "e-m:e-p270:32:32-p271:32:32-p272:64:64-i64:64-i128:128-f80:128-n8:16:32:64-S128"
target triple = "x86_64-pc-linux-gnu"

%"struct.std::_Rb_tree_node_base" = type { i32, ptr, ptr, ptr }
%"struct.std::_Rb_tree_node" = type { %"struct.std::_Rb_tree_node_base", %"struct.__gnu_cxx::__aligned_membuf" }
%"struct.__gnu_cxx::__aligned_membuf" = type { [392 x i8] }

; Function Attrs: mustprogress nounwind uwtable
define internal noundef ptr @_ZN9__gnu_cxx16__aligned_membufIN12_GLOBAL__N_115FusionCandidateEE7_M_addrEv(ptr noundef nonnull align 8 dereferenceable(392) %0) #1 align 2 {
  %2 = alloca ptr, align 8
  store ptr %0, ptr %2, align 8
  %3 = load ptr, ptr %2, align 8
  %4 = getelementptr inbounds nuw %"struct.__gnu_cxx::__aligned_membuf", ptr %3, i32 0, i32 0
  ret ptr %4
}

; Function Attrs: mustprogress nounwind uwtable
define internal noundef ptr @_ZN9__gnu_cxx16__aligned_membufIN12_GLOBAL__N_115FusionCandidateEE6_M_ptrEv(ptr noundef nonnull align 8 dereferenceable(392) %0) #1 align 2 {
  %2 = alloca ptr, align 8
  store ptr %0, ptr %2, align 8
  %3 = load ptr, ptr %2, align 8
  %4 = call noundef ptr @_ZN9__gnu_cxx16__aligned_membufIN12_GLOBAL__N_115FusionCandidateEE7_M_addrEv(ptr noundef nonnull align 8 dereferenceable(392) %3) #2
  ret ptr %4
}

; Function Attrs: mustprogress nounwind uwtable
define internal noundef ptr @_ZNSt13_Rb_tree_nodeIN12_GLOBAL__N_115FusionCandidateEE9_M_valptrEv(ptr noundef nonnull align 8 dereferenceable(424) %0) #1 align 2 {
  %2 = alloca ptr, align 8
  store ptr %0, ptr %2, align 8
  %3 = load ptr, ptr %2, align 8
  %4 = getelementptr inbounds nuw %"struct.std::_Rb_tree_node", ptr %3, i32 0, i32 1
  %5 = call noundef ptr @_ZN9__gnu_cxx16__aligned_membufIN12_GLOBAL__N_115FusionCandidateEE6_M_ptrEv(ptr noundef nonnull align 8 dereferenceable(392) %4) #2
  ret ptr %5
}

; Function Attrs: mustprogress nounwind uwtable
define internal noundef ptr @_ZNSt8_Rb_treeIN12_GLOBAL__N_115FusionCandidateES1_St9_IdentityIS1_ENS0_22FusionCandidateCompareESaIS1_EE7_S_leftEPSt18_Rb_tree_node_base(ptr noundef %0) #1 align 2 {
  %2 = alloca ptr, align 8
  store ptr %0, ptr %2, align 8
  %3 = load ptr, ptr %2, align 8
  %4 = getelementptr inbounds nuw %"struct.std::_Rb_tree_node_base", ptr %3, i32 0, i32 2
  %5 = load ptr, ptr %4, align 8
  ret ptr %5
}

; Function Attrs: mustprogress nounwind uwtable
define internal noundef ptr @_ZNSt8_Rb_treeIN12_GLOBAL__N_115FusionCandidateES1_St9_IdentityIS1_ENS0_22FusionCandidateCompareESaIS1_EE8_S_rightEPSt18_Rb_tree_node_base(ptr noundef %0) #1 align 2 {
  %2 = alloca ptr, align 8
  store ptr %0, ptr %2, align 8
  %3 = load ptr, ptr %2, align 8
  %4 = getelementptr inbounds nuw %"struct.std::_Rb_tree_node_base", ptr %3, i32 0, i32 3
  %5 = load ptr, ptr %4, align 8
  ret ptr %5
}

; Function Attrs: mustprogress nounwind uwtable
define internal noundef ptr @_ZNSt8_Rb_treeIN12_GLOBAL__N_115FusionCandidateES1_St9_IdentityIS1_ENS0_22FusionCandidateCompareESaIS1_EE13_M_clone_nodeILb0ENS6_11_Alloc_nodeEEEPSt13_Rb_tree_nodeIS1_ESB_RT0_(ptr noundef nonnull align 8 dereferenceable(48) %0, ptr noundef %1, ptr noundef nonnull align 8 dereferenceable(8) %2) #1 align 2 {
  %4 = alloca ptr, align 8
  %5 = alloca ptr, align 8
  %6 = alloca ptr, align 8
  %7 = alloca ptr, align 8
  store ptr %0, ptr %4, align 8
  store ptr %1, ptr %5, align 8
  store ptr %2, ptr %6, align 8
  %8 = load ptr, ptr %6, align 8
  %9 = load ptr, ptr %5, align 8
  %10 = call noundef ptr @_ZNSt13_Rb_tree_nodeIN12_GLOBAL__N_115FusionCandidateEE9_M_valptrEv(ptr noundef nonnull align 8 dereferenceable(424) %9)
  %11 = call noundef ptr @_ZNKSt8_Rb_treeIN12_GLOBAL__N_115FusionCandidateES1_St9_IdentityIS1_ENS0_22FusionCandidateCompareESaIS1_EE11_Alloc_nodeclIRKS1_EEPSt13_Rb_tree_nodeIS1_EOT_(ptr noundef nonnull align 8 dereferenceable(8) %8, ptr noundef nonnull align 8 dereferenceable(392) %10)
  store ptr %11, ptr %7, align 8
  %12 = load ptr, ptr %5, align 8
  %13 = getelementptr inbounds nuw %"struct.std::_Rb_tree_node_base", ptr %12, i32 0, i32 0
  %14 = load i32, ptr %13, align 8
  %15 = load ptr, ptr %7, align 8
  %16 = getelementptr inbounds nuw %"struct.std::_Rb_tree_node_base", ptr %15, i32 0, i32 0
  store i32 %14, ptr %16, align 8
  %17 = load ptr, ptr %7, align 8
  %18 = getelementptr inbounds nuw %"struct.std::_Rb_tree_node_base", ptr %17, i32 0, i32 2
  store ptr null, ptr %18, align 8
  %19 = load ptr, ptr %7, align 8
  %20 = getelementptr inbounds nuw %"struct.std::_Rb_tree_node_base", ptr %19, i32 0, i32 3
  store ptr null, ptr %20, align 8
  %21 = load ptr, ptr %7, align 8
  ret ptr %21
}

; Function Attrs: mustprogress nounwind uwtable
define internal noundef ptr @_ZNSt8_Rb_treeIN12_GLOBAL__N_115FusionCandidateES1_St9_IdentityIS1_ENS0_22FusionCandidateCompareESaIS1_EE7_M_copyILb0ENS6_11_Alloc_nodeEEEPSt13_Rb_tree_nodeIS1_ESB_PSt18_Rb_tree_node_baseRT0_(ptr noundef nonnull align 8 dereferenceable(48) %0, ptr noundef %1, ptr noundef %2, ptr noundef nonnull align 8 dereferenceable(8) %3) #1 align 2 {
  %5 = alloca ptr, align 8
  %6 = alloca ptr, align 8
  %7 = alloca ptr, align 8
  %8 = alloca ptr, align 8
  %9 = alloca ptr, align 8
  %10 = alloca ptr, align 8
  store ptr %0, ptr %5, align 8
  store ptr %1, ptr %6, align 8
  store ptr %2, ptr %7, align 8
  store ptr %3, ptr %8, align 8
  %11 = load ptr, ptr %5, align 8
  %12 = load ptr, ptr %6, align 8
  %13 = load ptr, ptr %8, align 8
  %14 = call noundef ptr @_ZNSt8_Rb_treeIN12_GLOBAL__N_115FusionCandidateES1_St9_IdentityIS1_ENS0_22FusionCandidateCompareESaIS1_EE13_M_clone_nodeILb0ENS6_11_Alloc_nodeEEEPSt13_Rb_tree_nodeIS1_ESB_RT0_(ptr noundef nonnull align 8 dereferenceable(48) %11, ptr noundef %12, ptr noundef nonnull align 8 dereferenceable(8) %13)
  store ptr %14, ptr %9, align 8
  %15 = load ptr, ptr %7, align 8
  %16 = load ptr, ptr %9, align 8
  %17 = getelementptr inbounds nuw %"struct.std::_Rb_tree_node_base", ptr %16, i32 0, i32 1
  store ptr %15, ptr %17, align 8
  %18 = load ptr, ptr %6, align 8
  %19 = getelementptr inbounds nuw %"struct.std::_Rb_tree_node_base", ptr %18, i32 0, i32 3
  %20 = load ptr, ptr %19, align 8
  %21 = icmp ne ptr %20, null
  br i1 %21, label %22, label %30

22:                                               ; preds = %4
  %23 = load ptr, ptr %6, align 8
  %24 = call noundef ptr @_ZNSt8_Rb_treeIN12_GLOBAL__N_115FusionCandidateES1_St9_IdentityIS1_ENS0_22FusionCandidateCompareESaIS1_EE8_S_rightEPSt18_Rb_tree_node_base(ptr noundef %23) #2
  %25 = load ptr, ptr %9, align 8
  %26 = load ptr, ptr %8, align 8
  %27 = call noundef ptr @_ZNSt8_Rb_treeIN12_GLOBAL__N_115FusionCandidateES1_St9_IdentityIS1_ENS0_22FusionCandidateCompareESaIS1_EE7_M_copyILb0ENS6_11_Alloc_nodeEEEPSt13_Rb_tree_nodeIS1_ESB_PSt18_Rb_tree_node_baseRT0_(ptr noundef nonnull align 8 dereferenceable(48) %11, ptr noundef %24, ptr noundef %25, ptr noundef nonnull align 8 dereferenceable(8) %26)
  %28 = load ptr, ptr %9, align 8
  %29 = getelementptr inbounds nuw %"struct.std::_Rb_tree_node_base", ptr %28, i32 0, i32 3
  store ptr %27, ptr %29, align 8
  br label %30

30:                                               ; preds = %22, %4
  %31 = load ptr, ptr %9, align 8
  store ptr %31, ptr %7, align 8
  %32 = load ptr, ptr %6, align 8
  %33 = call noundef ptr @_ZNSt8_Rb_treeIN12_GLOBAL__N_115FusionCandidateES1_St9_IdentityIS1_ENS0_22FusionCandidateCompareESaIS1_EE7_S_leftEPSt18_Rb_tree_node_base(ptr noundef %32) #2
  store ptr %33, ptr %6, align 8
  br label %34

34:                                               ; preds = %59, %30
  %35 = load ptr, ptr %6, align 8
  %36 = icmp ne ptr %35, null
  br i1 %36, label %37, label %63

37:                                               ; preds = %34
  %38 = load ptr, ptr %6, align 8
  %39 = load ptr, ptr %8, align 8
  %40 = call noundef ptr @_ZNSt8_Rb_treeIN12_GLOBAL__N_115FusionCandidateES1_St9_IdentityIS1_ENS0_22FusionCandidateCompareESaIS1_EE13_M_clone_nodeILb0ENS6_11_Alloc_nodeEEEPSt13_Rb_tree_nodeIS1_ESB_RT0_(ptr noundef nonnull align 8 dereferenceable(48) %11, ptr noundef %38, ptr noundef nonnull align 8 dereferenceable(8) %39)
  store ptr %40, ptr %10, align 8
  %41 = load ptr, ptr %10, align 8
  %42 = load ptr, ptr %7, align 8
  %43 = getelementptr inbounds nuw %"struct.std::_Rb_tree_node_base", ptr %42, i32 0, i32 2
  store ptr %41, ptr %43, align 8
  %44 = load ptr, ptr %7, align 8
  %45 = load ptr, ptr %10, align 8
  %46 = getelementptr inbounds nuw %"struct.std::_Rb_tree_node_base", ptr %45, i32 0, i32 1
  store ptr %44, ptr %46, align 8
  %47 = load ptr, ptr %6, align 8
  %48 = getelementptr inbounds nuw %"struct.std::_Rb_tree_node_base", ptr %47, i32 0, i32 3
  %49 = load ptr, ptr %48, align 8
  %50 = icmp ne ptr %49, null
  br i1 %50, label %51, label %59

51:                                               ; preds = %37
  %52 = load ptr, ptr %6, align 8
  %53 = call noundef ptr @_ZNSt8_Rb_treeIN12_GLOBAL__N_115FusionCandidateES1_St9_IdentityIS1_ENS0_22FusionCandidateCompareESaIS1_EE8_S_rightEPSt18_Rb_tree_node_base(ptr noundef %52) #2
  %54 = load ptr, ptr %10, align 8
  %55 = load ptr, ptr %8, align 8
  %56 = call noundef ptr @_ZNSt8_Rb_treeIN12_GLOBAL__N_115FusionCandidateES1_St9_IdentityIS1_ENS0_22FusionCandidateCompareESaIS1_EE7_M_copyILb0ENS6_11_Alloc_nodeEEEPSt13_Rb_tree_nodeIS1_ESB_PSt18_Rb_tree_node_baseRT0_(ptr noundef nonnull align 8 dereferenceable(48) %11, ptr noundef %53, ptr noundef %54, ptr noundef nonnull align 8 dereferenceable(8) %55)
  %57 = load ptr, ptr %10, align 8
  %58 = getelementptr inbounds nuw %"struct.std::_Rb_tree_node_base", ptr %57, i32 0, i32 3
  store ptr %56, ptr %58, align 8
  br label %59

59:                                               ; preds = %51, %37
  %60 = load ptr, ptr %10, align 8
  store ptr %60, ptr %7, align 8
  %61 = load ptr, ptr %6, align 8
  %62 = call noundef ptr @_ZNSt8_Rb_treeIN12_GLOBAL__N_115FusionCandidateES1_St9_IdentityIS1_ENS0_22FusionCandidateCompareESaIS1_EE7_S_leftEPSt18_Rb_tree_node_base(ptr noundef %61) #2
  store ptr %62, ptr %6, align 8
  br label %34, !llvm.loop !17

63:                                               ; preds = %34
  %64 = load ptr, ptr %9, align 8
  ret ptr %64
}