; Function Attrs: mustprogress nounwind uwtable
define internal fastcc noundef nonnull ptr @_ZNSt8_Rb_treeIN12_GLOBAL__N_115FusionCandidateES1_St9_IdentityIS1_ENS0_22FusionCandidateCompareESaIS1_EE7_M_copyILb0ENS6_11_Alloc_nodeEEEPSt13_Rb_tree_nodeIS1_ESB_PSt18_Rb_tree_node_baseRT0_(ptr noundef %0, ptr noundef %1) unnamed_addr #0 align 2 {
  %3 = getelementptr inbounds nuw i8, ptr %0, i64 32
  %4 = tail call fastcc noundef nonnull ptr @_ZNKSt8_Rb_treeIN12_GLOBAL__N_115FusionCandidateES1_St9_IdentityIS1_ENS0_22FusionCandidateCompareESaIS1_EE11_Alloc_nodeclIRKS1_EEPSt13_Rb_tree_nodeIS1_EOT_(ptr noundef nonnull align 8 dereferenceable(392) %3)
  %5 = load i32, ptr %0, align 8
  store i32 %5, ptr %4, align 8
  %6 = getelementptr inbounds nuw i8, ptr %4, i64 16
  tail call void @llvm.memset.p0.i64(ptr noundef nonnull align 8 dereferenceable(16) %6, i8 0, i64 16, i1 false)
  %7 = getelementptr inbounds nuw i8, ptr %4, i64 8
  store ptr %1, ptr %7, align 8
  %8 = getelementptr inbounds nuw i8, ptr %0, i64 24
  %9 = load ptr, ptr %8, align 8
  %.not = icmp eq ptr %9, null
  br i1 %.not, label %13, label %10

10:                                               ; preds = %2
  %11 = tail call fastcc noundef ptr @_ZNSt8_Rb_treeIN12_GLOBAL__N_115FusionCandidateES1_St9_IdentityIS1_ENS0_22FusionCandidateCompareESaIS1_EE7_M_copyILb0ENS6_11_Alloc_nodeEEEPSt13_Rb_tree_nodeIS1_ESB_PSt18_Rb_tree_node_baseRT0_(ptr noundef nonnull %9, ptr noundef nonnull %4)
  %12 = getelementptr inbounds nuw i8, ptr %4, i64 24
  store ptr %11, ptr %12, align 8
  br label %13

13:                                               ; preds = %10, %2
  %.0.in1 = getelementptr i8, ptr %0, i64 16
  %.02 = load ptr, ptr %.0.in1, align 8
  %.not283 = icmp eq ptr %.02, null
  br i1 %.not283, label %._crit_edge, label %.lr.ph

.lr.ph:                                           ; preds = %13, %25
  %.05 = phi ptr [ %.0, %25 ], [ %.02, %13 ]
  %.0274 = phi ptr [ %15, %25 ], [ %4, %13 ]
  %14 = getelementptr inbounds nuw i8, ptr %.05, i64 32
  %15 = tail call fastcc noundef nonnull ptr @_ZNKSt8_Rb_treeIN12_GLOBAL__N_115FusionCandidateES1_St9_IdentityIS1_ENS0_22FusionCandidateCompareESaIS1_EE11_Alloc_nodeclIRKS1_EEPSt13_Rb_tree_nodeIS1_EOT_(ptr noundef nonnull align 8 dereferenceable(392) %14)
  %16 = load i32, ptr %.05, align 8
  store i32 %16, ptr %15, align 8
  %17 = getelementptr inbounds nuw i8, ptr %15, i64 16
  tail call void @llvm.memset.p0.i64(ptr noundef nonnull align 8 dereferenceable(16) %17, i8 0, i64 16, i1 false)
  %18 = getelementptr inbounds nuw i8, ptr %.0274, i64 16
  store ptr %15, ptr %18, align 8
  %19 = getelementptr inbounds nuw i8, ptr %15, i64 8
  store ptr %.0274, ptr %19, align 8
  %20 = getelementptr inbounds nuw i8, ptr %.05, i64 24
  %21 = load ptr, ptr %20, align 8
  %.not29 = icmp eq ptr %21, null
  br i1 %.not29, label %25, label %22

22:                                               ; preds = %.lr.ph
  %23 = tail call fastcc noundef ptr @_ZNSt8_Rb_treeIN12_GLOBAL__N_115FusionCandidateES1_St9_IdentityIS1_ENS0_22FusionCandidateCompareESaIS1_EE7_M_copyILb0ENS6_11_Alloc_nodeEEEPSt13_Rb_tree_nodeIS1_ESB_PSt18_Rb_tree_node_baseRT0_(ptr noundef nonnull %21, ptr noundef nonnull %15)
  %24 = getelementptr inbounds nuw i8, ptr %15, i64 24
  store ptr %23, ptr %24, align 8
  br label %25

25:                                               ; preds = %22, %.lr.ph
  %.0.in = getelementptr i8, ptr %.05, i64 16
  %.0 = load ptr, ptr %.0.in, align 8
  %.not28 = icmp eq ptr %.0, null
  br i1 %.not28, label %._crit_edge, label %.lr.ph, !llvm.loop !75

._crit_edge:                                      ; preds = %25, %13
  ret ptr %4
}